; ModuleID = '28/1751.c'
source_filename = "28/1751.c"
target datalayout = "e-m:e-p270:32:32-p271:32:32-p272:64:64-i64:64-f80:128-n8:16:32:64-S128"
target triple = "x86_64-pc-linux-gnu"

@.str = private unnamed_addr constant [3 x i8] c"%c\00", align 1
@.str.1 = private unnamed_addr constant [3 x i8] c"%d\00", align 1
@.str.2 = private unnamed_addr constant [4 x i8] c",%d\00", align 1

; Function Attrs: noinline nounwind uwtable
define dso_local i32 @main() #0 {
  %1 = alloca i32, align 4
  %2 = alloca [300 x [20 x i8]], align 16
  %3 = alloca i8, align 1
  %4 = alloca [300 x i32], align 16
  %5 = alloca i32, align 4
  %6 = alloca i32, align 4
  %7 = alloca i32, align 4
  %8 = alloca i32, align 4
  store i32 0, i32* %1, align 4
  store i32 0, i32* %8, align 4
  store i32 0, i32* %5, align 4
  br label %9

9:                                                ; preds = %85, %0
  store i32 0, i32* %7, align 4
  br label %10

10:                                               ; preds = %28, %9
  %11 = load i8, i8* %3, align 1
  %12 = sext i8 %11 to i32
  %13 = icmp eq i32 %12, 32
  br i1 %13, label %26, label %14

14:                                               ; preds = %10
  %15 = load i8, i8* %3, align 1
  %16 = sext i8 %15 to i32
  %17 = icmp eq i32 %16, 63
  br i1 %17, label %26, label %18

18:                                               ; preds = %14
  %19 = load i8, i8* %3, align 1
  %20 = sext i8 %19 to i32
  %21 = icmp eq i32 %20, 44
  br i1 %21, label %26, label %22

22:                                               ; preds = %18
  %23 = load i8, i8* %3, align 1
  %24 = sext i8 %23 to i32
  %25 = icmp eq i32 %24, 33
  br label %26

26:                                               ; preds = %22, %18, %14, %10
  %27 = phi i1 [ true, %18 ], [ true, %14 ], [ true, %10 ], [ %25, %22 ]
  br i1 %27, label %28, label %30

28:                                               ; preds = %26
  %29 = call i32 (i8*, ...) @__isoc99_scanf(i8* getelementptr inbounds ([3 x i8], [3 x i8]* @.str, i64 0, i64 0), i8* %3)
  br label %10

30:                                               ; preds = %26
  %31 = load i8, i8* %3, align 1
  %32 = load i32, i32* %5, align 4
  %33 = sext i32 %32 to i64
  %34 = getelementptr inbounds [300 x [20 x i8]], [300 x [20 x i8]]* %2, i64 0, i64 %33
  %35 = load i32, i32* %7, align 4
  %36 = sext i32 %35 to i64
  %37 = getelementptr inbounds [20 x i8], [20 x i8]* %34, i64 0, i64 %36
  store i8 %31, i8* %37, align 1
  store i32 1, i32* %7, align 4
  br label %38

38:                                               ; preds = %80, %30
  %39 = call i32 (i8*, ...) @__isoc99_scanf(i8* getelementptr inbounds ([3 x i8], [3 x i8]* @.str, i64 0, i64 0), i8* %3)
  %40 = load i8, i8* %3, align 1
  %41 = sext i8 %40 to i32
  %42 = icmp eq i32 %41, 32
  br i1 %42, label %43, label %54

43:                                               ; preds = %38
  %44 = load i32, i32* %5, align 4
  %45 = sext i32 %44 to i64
  %46 = getelementptr inbounds [300 x [20 x i8]], [300 x [20 x i8]]* %2, i64 0, i64 %45
  %47 = load i32, i32* %7, align 4
  %48 = sext i32 %47 to i64
  %49 = getelementptr inbounds [20 x i8], [20 x i8]* %46, i64 0, i64 %48
  store i8 0, i8* %49, align 1
  %50 = load i32, i32* %7, align 4
  %51 = load i32, i32* %5, align 4
  %52 = sext i32 %51 to i64
  %53 = getelementptr inbounds [300 x i32], [300 x i32]* %4, i64 0, i64 %52
  store i32 %50, i32* %53, align 4
  br label %81

54:                                               ; preds = %38
  %55 = load i8, i8* %3, align 1
  %56 = sext i8 %55 to i32
  %57 = icmp eq i32 %56, 10
  br i1 %57, label %58, label %69

58:                                               ; preds = %54
  %59 = load i32, i32* %5, align 4
  %60 = sext i32 %59 to i64
  %61 = getelementptr inbounds [300 x [20 x i8]], [300 x [20 x i8]]* %2, i64 0, i64 %60
  %62 = load i32, i32* %7, align 4
  %63 = sext i32 %62 to i64
  %64 = getelementptr inbounds [20 x i8], [20 x i8]* %61, i64 0, i64 %63
  store i8 0, i8* %64, align 1
  store i32 1, i32* %8, align 4
  %65 = load i32, i32* %7, align 4
  %66 = load i32, i32* %5, align 4
  %67 = sext i32 %66 to i64
  %68 = getelementptr inbounds [300 x i32], [300 x i32]* %4, i64 0, i64 %67
  store i32 %65, i32* %68, align 4
  br label %81

69:                                               ; preds = %54
  %70 = load i8, i8* %3, align 1
  %71 = load i32, i32* %5, align 4
  %72 = sext i32 %71 to i64
  %73 = getelementptr inbounds [300 x [20 x i8]], [300 x [20 x i8]]* %2, i64 0, i64 %72
  %74 = load i32, i32* %7, align 4
  %75 = sext i32 %74 to i64
  %76 = getelementptr inbounds [20 x i8], [20 x i8]* %73, i64 0, i64 %75
  store i8 %70, i8* %76, align 1
  %77 = load i32, i32* %7, align 4
  %78 = add nsw i32 %77, 1
  store i32 %78, i32* %7, align 4
  br label %79

79:                                               ; preds = %69
  br label %80

80:                                               ; preds = %79
  br label %38

81:                                               ; preds = %58, %43
  %82 = load i32, i32* %8, align 4
  %83 = icmp eq i32 %82, 1
  br i1 %83, label %84, label %85

84:                                               ; preds = %81
  br label %88

85:                                               ; preds = %81
  %86 = load i32, i32* %5, align 4
  %87 = add nsw i32 %86, 1
  store i32 %87, i32* %5, align 4
  br label %9

88:                                               ; preds = %84
  %89 = getelementptr inbounds [300 x i32], [300 x i32]* %4, i64 0, i64 0
  %90 = load i32, i32* %89, align 16
  %91 = sub nsw i32 %90, 1
  %92 = call i32 (i8*, ...) @printf(i8* getelementptr inbounds ([3 x i8], [3 x i8]* @.str.1, i64 0, i64 0), i32 %91)
  store i32 1, i32* %6, align 4
  br label %93

93:                                               ; preds = %103, %88
  %94 = load i32, i32* %6, align 4
  %95 = load i32, i32* %5, align 4
  %96 = icmp sle i32 %94, %95
  br i1 %96, label %97, label %106

97:                                               ; preds = %93
  %98 = load i32, i32* %6, align 4
  %99 = sext i32 %98 to i64
  %100 = getelementptr inbounds [300 x i32], [300 x i32]* %4, i64 0, i64 %99
  %101 = load i32, i32* %100, align 4
  %102 = call i32 (i8*, ...) @printf(i8* getelementptr inbounds ([4 x i8], [4 x i8]* @.str.2, i64 0, i64 0), i32 %101)
  br label %103

103:                                              ; preds = %97
  %104 = load i32, i32* %6, align 4
  %105 = add nsw i32 %104, 1
  store i32 %105, i32* %6, align 4
  br label %93

106:                                              ; preds = %93
  ret i32 0
}

declare dso_local i32 @__isoc99_scanf(i8*, ...) #1

declare dso_local i32 @printf(i8*, ...) #1


!llvm.module.flags = !{!0}
!llvm.ident = !{!1}

!0 = !{i32 1, !"wchar_size", i32 4}
!1 = !{!"clang version 10.0.0-4ubuntu1 "}
