; ModuleID = 'source-C-CXX/27/1751.c'
source_filename = "source-C-CXX/27/1751.c"
target datalayout = "e-m:e-p270:32:32-p271:32:32-p272:64:64-i64:64-f80:128-n8:16:32:64-S128"
target triple = "x86_64-pc-linux-gnu"

@.str = private unnamed_addr constant [3 x i8] c"%c\00", align 1
@.str.1 = private unnamed_addr constant [3 x i8] c"%d\00", align 1
@.str.2 = private unnamed_addr constant [4 x i8] c",%d\00", align 1

; Function Attrs: nofree nounwind sspstrong uwtable
define dso_local i32 @main() local_unnamed_addr #0 {
  %1 = alloca i8, align 1
  %2 = alloca [300 x i32], align 16
  call void @llvm.lifetime.start.p0i8(i64 1, i8* nonnull %1) #3
  %3 = bitcast [300 x i32]* %2 to i8*
  call void @llvm.lifetime.start.p0i8(i64 1200, i8* nonnull %3) #3
  br label %4

4:                                                ; preds = %17, %0
  %5 = phi i64 [ %19, %17 ], [ 0, %0 ]
  br label %6

6:                                                ; preds = %8, %4
  %7 = phi i8 [ %10, %8 ], [ 32, %4 ]
  switch i8 %7, label %11 [
    i8 32, label %8
    i8 63, label %8
    i8 44, label %8
    i8 33, label %8
  ]

8:                                                ; preds = %6, %6, %6, %6
  %9 = call i32 (i8*, ...) @__isoc99_scanf(i8* getelementptr inbounds ([3 x i8], [3 x i8]* @.str, i64 0, i64 0), i8* nonnull %1)
  %10 = load i8, i8* %1, align 1, !tbaa !5
  br label %6, !llvm.loop !8

11:                                               ; preds = %6, %15
  %12 = phi i32 [ %16, %15 ], [ 1, %6 ]
  %13 = call i32 (i8*, ...) @__isoc99_scanf(i8* getelementptr inbounds ([3 x i8], [3 x i8]* @.str, i64 0, i64 0), i8* nonnull %1)
  %14 = load i8, i8* %1, align 1, !tbaa !5
  switch i8 %14, label %15 [
    i8 32, label %17
    i8 10, label %20
  ]

15:                                               ; preds = %11
  %16 = add nuw nsw i32 %12, 1
  br label %11

17:                                               ; preds = %11
  %18 = getelementptr inbounds [300 x i32], [300 x i32]* %2, i64 0, i64 %5
  store i32 %12, i32* %18, align 4, !tbaa !10
  %19 = add nuw i64 %5, 1
  br label %4

20:                                               ; preds = %11
  %21 = trunc i64 %5 to i32
  %22 = and i64 %5, 4294967295
  %23 = getelementptr inbounds [300 x i32], [300 x i32]* %2, i64 0, i64 %22
  store i32 %12, i32* %23, align 4, !tbaa !10
  %24 = getelementptr inbounds [300 x i32], [300 x i32]* %2, i64 0, i64 0
  %25 = load i32, i32* %24, align 16, !tbaa !10
  %26 = add nsw i32 %25, -1
  %27 = call i32 (i8*, ...) @printf(i8* nonnull dereferenceable(1) getelementptr inbounds ([3 x i8], [3 x i8]* @.str.1, i64 0, i64 0), i32 %26)
  %28 = icmp eq i32 %21, 0
  br i1 %28, label %39, label %29

29:                                               ; preds = %20
  %30 = add i64 %5, 1
  %31 = and i64 %30, 4294967295
  br label %32

32:                                               ; preds = %29, %32
  %33 = phi i64 [ 1, %29 ], [ %37, %32 ]
  %34 = getelementptr inbounds [300 x i32], [300 x i32]* %2, i64 0, i64 %33
  %35 = load i32, i32* %34, align 4, !tbaa !10
  %36 = call i32 (i8*, ...) @printf(i8* nonnull dereferenceable(1) getelementptr inbounds ([4 x i8], [4 x i8]* @.str.2, i64 0, i64 0), i32 %35)
  %37 = add nuw nsw i64 %33, 1
  %38 = icmp eq i64 %37, %31
  br i1 %38, label %39, label %32, !llvm.loop !12

39:                                               ; preds = %32, %20
  call void @llvm.lifetime.end.p0i8(i64 1200, i8* nonnull %3) #3
  call void @llvm.lifetime.end.p0i8(i64 1, i8* nonnull %1) #3
  ret i32 0
}

; Function Attrs: argmemonly mustprogress nofree nosync nounwind willreturn
declare void @llvm.lifetime.start.p0i8(i64 immarg, i8* nocapture) #1

; Function Attrs: nofree nounwind
declare noundef i32 @__isoc99_scanf(i8* nocapture noundef readonly, ...) local_unnamed_addr #2

; Function Attrs: nofree nounwind
declare noundef i32 @printf(i8* nocapture noundef readonly, ...) local_unnamed_addr #2

; Function Attrs: argmemonly mustprogress nofree nosync nounwind willreturn
declare void @llvm.lifetime.end.p0i8(i64 immarg, i8* nocapture) #1


!llvm.module.flags = !{!0, !1, !2, !3}
!llvm.ident = !{!4}

!0 = !{i32 1, !"wchar_size", i32 4}
!1 = !{i32 7, !"PIC Level", i32 2}
!2 = !{i32 7, !"PIE Level", i32 2}
!3 = !{i32 7, !"uwtable", i32 1}
!4 = !{!"clang version 13.0.0"}
!5 = !{!6, !6, i64 0}
!6 = !{!"omnipotent char", !7, i64 0}
!7 = !{!"Simple C/C++ TBAA"}
!8 = distinct !{!8, !9}
!9 = !{!"llvm.loop.mustprogress"}
!10 = !{!11, !11, i64 0}
!11 = !{!"int", !6, i64 0}
!12 = distinct !{!12, !9}
